target datalayout = "e-m:e-p270:32:32-p271:32:32-p272:64:64-i64:64-i128:128-f80:128-n8:16:32:64-S128"
target triple = "x86_64-pc-linux-gnu"

%struct.GtkBorder = type { i16, i16, i16, i16 }

@fp_g_object_get = internal global ptr null, align 8
@fp_gtk_widget_get_style_context = internal global ptr null, align 8
@fp_gtk_settings_get_for_screen = internal global ptr null, align 8
@fp_gtk_widget_get_screen = internal global ptr null, align 8
@fp_gtk_css_provider_get_named = internal global ptr null, align 8
@fp_gtk_style_context_get_padding = internal global ptr null, align 8
@fp_gtk_fixed_new = internal global ptr null, align 8
@fp_gtk_window_new = internal global ptr null, align 8
@fp_gtk_container_add = internal global ptr null, align 8
@fp_gtk_widget_realize = internal global ptr null, align 8
@gtk3_window = internal global ptr null, align 8
@gtk3_widget = internal global ptr null, align 8
@gtk3_fixed = internal global ptr null, align 8
@.str.344 = private unnamed_addr constant [15 x i8] c"gtk-theme-name\00", align 1
@gtk3_css = internal global ptr null, align 8

; Function Attrs: nounwind uwtable
define internal void @init_containers() #0 {
  %1 = alloca ptr, align 8
  %2 = alloca ptr, align 8
  %3 = load ptr, ptr @gtk3_window, align 8
  %4 = icmp eq ptr %3, null
  br i1 %4, label %5, label %27

5:                                                ; preds = %0
  %6 = load ptr, ptr @fp_gtk_window_new, align 8
  %7 = call ptr %6(i32 noundef 0)
  store ptr %7, ptr @gtk3_window, align 8
  %8 = load ptr, ptr @fp_gtk_fixed_new, align 8
  %9 = call ptr (...) %8()
  store ptr %9, ptr @gtk3_fixed, align 8
  %10 = load ptr, ptr @fp_gtk_container_add, align 8
  %11 = load ptr, ptr @gtk3_window, align 8
  %12 = load ptr, ptr @gtk3_fixed, align 8
  call void %10(ptr noundef %11, ptr noundef %12)
  %13 = load ptr, ptr @fp_gtk_widget_realize, align 8
  %14 = load ptr, ptr @gtk3_window, align 8
  call void %13(ptr noundef %14)
  %15 = load ptr, ptr @fp_gtk_widget_realize, align 8
  %16 = load ptr, ptr @gtk3_fixed, align 8
  call void %15(ptr noundef %16)
  %17 = load ptr, ptr @fp_gtk_settings_get_for_screen, align 8
  %18 = load ptr, ptr @fp_gtk_widget_get_screen, align 8
  %19 = load ptr, ptr @gtk3_window, align 8
  %20 = call ptr %18(ptr noundef %19)
  %21 = call ptr %17(ptr noundef %20)
  store ptr %21, ptr %1, align 8
  store ptr null, ptr %2, align 8
  %22 = load ptr, ptr @fp_g_object_get, align 8
  %23 = load ptr, ptr %1, align 8
  call void (ptr, ptr, ...) %22(ptr noundef %23, ptr noundef @.str.344, ptr noundef %2, ptr noundef null)
  %24 = load ptr, ptr @fp_gtk_css_provider_get_named, align 8
  %25 = load ptr, ptr %2, align 8
  %26 = call ptr %24(ptr noundef %25, ptr noundef null)
  store ptr %26, ptr @gtk3_css, align 8
  br label %27

27:                                               ; preds = %5, %0
  ret void
}

; Function Attrs: nounwind uwtable
define internal i32 @gtk3_get_xthickness(ptr noundef %0, i32 noundef %1) #0 {
  %3 = alloca i32, align 4
  %4 = alloca ptr, align 8
  %5 = alloca i32, align 4
  %6 = alloca ptr, align 8
  %7 = alloca %struct.GtkBorder, align 2
  store ptr %0, ptr %4, align 8
  store i32 %1, ptr %5, align 4
  call void @init_containers()
  %8 = load i32, ptr %5, align 4
  %9 = call ptr @gtk3_get_widget(i32 noundef %8)
  store ptr %9, ptr @gtk3_widget, align 8
  %10 = load ptr, ptr @fp_gtk_widget_get_style_context, align 8
  %11 = load ptr, ptr @gtk3_widget, align 8
  %12 = call ptr %10(ptr noundef %11)
  store ptr %12, ptr %6, align 8
  %13 = load ptr, ptr %6, align 8
  %14 = icmp ne ptr %13, null
  br i1 %14, label %15, label %22

15:                                               ; preds = %2
  %16 = load ptr, ptr @fp_gtk_style_context_get_padding, align 8
  %17 = load ptr, ptr %6, align 8
  call void %16(ptr noundef %17, i32 noundef 0, ptr noundef %7)
  %18 = getelementptr inbounds %struct.GtkBorder, ptr %7, i32 0, i32 0
  %19 = load i16, ptr %18, align 2
  %20 = sext i16 %19 to i32
  %21 = add nsw i32 %20, 1
  store i32 %21, ptr %3, align 4
  br label %23

22:                                               ; preds = %2
  store i32 0, ptr %3, align 4
  br label %23

23:                                               ; preds = %22, %15
  %24 = load i32, ptr %3, align 4
  ret i32 %24
}