; Function Attrs: nounwind uwtable
define internal range(i32 -32767, 32769) i32 @gtk3_get_xthickness(ptr nocapture readnone %0, i32 noundef %1) #0 {
  %3 = alloca ptr, align 8
  %4 = alloca %struct.GtkBorder, align 2
  call void @llvm.lifetime.start.p0(i64 8, ptr nonnull %3)
  %5 = load ptr, ptr @gtk3_window, align 8
  %6 = icmp eq ptr %5, null
  br i1 %6, label %7, label %init_containers.exit

7:                                                ; preds = %2
  %8 = load ptr, ptr @fp_gtk_window_new, align 8
  %9 = tail call ptr %8(i32 noundef 0) #19
  store ptr %9, ptr @gtk3_window, align 8
  %10 = load ptr, ptr @fp_gtk_fixed_new, align 8
  %11 = tail call ptr (...) %10() #19
  store ptr %11, ptr @gtk3_fixed, align 8
  %12 = load ptr, ptr @fp_gtk_container_add, align 8
  %13 = load ptr, ptr @gtk3_window, align 8
  tail call void %12(ptr noundef %13, ptr noundef %11) #19
  %14 = load ptr, ptr @fp_gtk_widget_realize, align 8
  %15 = load ptr, ptr @gtk3_window, align 8
  tail call void %14(ptr noundef %15) #19
  %16 = load ptr, ptr @fp_gtk_widget_realize, align 8
  %17 = load ptr, ptr @gtk3_fixed, align 8
  tail call void %16(ptr noundef %17) #19
  %18 = load ptr, ptr @fp_gtk_settings_get_for_screen, align 8
  %19 = load ptr, ptr @fp_gtk_widget_get_screen, align 8
  %20 = load ptr, ptr @gtk3_window, align 8
  %21 = tail call ptr %19(ptr noundef %20) #19
  %22 = tail call ptr %18(ptr noundef %21) #19
  store ptr null, ptr %3, align 8
  %23 = load ptr, ptr @fp_g_object_get, align 8
  call void (ptr, ptr, ...) %23(ptr noundef %22, ptr noundef nonnull @.str.344, ptr noundef nonnull %3, ptr noundef null) #19
  %24 = load ptr, ptr @fp_gtk_css_provider_get_named, align 8
  %25 = load ptr, ptr %3, align 8
  %26 = call ptr %24(ptr noundef %25, ptr noundef null) #19
  store ptr %26, ptr @gtk3_css, align 8
  br label %init_containers.exit

init_containers.exit:                             ; preds = %2, %7
  call void @llvm.lifetime.end.p0(i64 8, ptr nonnull %3)
  %27 = call fastcc ptr @gtk3_get_widget(i32 noundef %1)
  store ptr %27, ptr @gtk3_widget, align 8
  %28 = load ptr, ptr @fp_gtk_widget_get_style_context, align 8
  %29 = call ptr %28(ptr noundef %27) #19
  %.not = icmp eq ptr %29, null
  br i1 %.not, label %35, label %30

30:                                               ; preds = %init_containers.exit
  %31 = load ptr, ptr @fp_gtk_style_context_get_padding, align 8
  call void %31(ptr noundef nonnull %29, i32 noundef 0, ptr noundef nonnull %4) #19
  %32 = load i16, ptr %4, align 2
  %33 = sext i16 %32 to i32
  %34 = add nsw i32 %33, 1
  br label %35

35:                                               ; preds = %init_containers.exit, %30
  %.0 = phi i32 [ %34, %30 ], [ 0, %init_containers.exit ]
  ret i32 %.0
}